; ModuleID = 'source-C-CXX/61/62.c'
source_filename = "source-C-CXX/61/62.c"
target datalayout = "e-m:e-p270:32:32-p271:32:32-p272:64:64-i64:64-f80:128-n8:16:32:64-S128"
target triple = "x86_64-pc-linux-gnu"

@.str.1 = private unnamed_addr constant [4 x i8] c"%s \00", align 1
@.str.2 = private unnamed_addr constant [3 x i8] c"%s\00", align 1

; Function Attrs: nounwind sspstrong uwtable
define dso_local i32 @main() local_unnamed_addr #0 {
  %1 = alloca [100 x i8], align 16
  %2 = alloca [100 x [100 x i8]], align 16
  %3 = getelementptr inbounds [100 x i8], [100 x i8]* %1, i64 0, i64 0
  call void @llvm.lifetime.start.p0i8(i64 100, i8* nonnull %3) #5
  %4 = getelementptr inbounds [100 x [100 x i8]], [100 x [100 x i8]]* %2, i64 0, i64 0, i64 0
  call void @llvm.lifetime.start.p0i8(i64 10000, i8* nonnull %4) #5
  %5 = call i32 (i8*, ...) bitcast (i32 (...)* @gets to i32 (i8*, ...)*)(i8* nonnull %3) #5
  %6 = call i64 @strlen(i8* noundef nonnull %3)
  %7 = getelementptr [100 x i8], [100 x i8]* %1, i64 0, i64 %6
  %8 = bitcast i8* %7 to i16*
  store i16 32, i16* %8, align 1
  %9 = load i8, i8* %3, align 16, !tbaa !5
  %10 = icmp eq i8 %9, 0
  br i1 %10, label %50, label %11

11:                                               ; preds = %0, %37
  %12 = phi i32 [ %38, %37 ], [ 0, %0 ]
  %13 = phi i32 [ %39, %37 ], [ 0, %0 ]
  %14 = sext i32 %12 to i64
  %15 = sext i32 %13 to i64
  br label %21

16:                                               ; preds = %37
  %17 = add i32 %38, -1
  %18 = icmp sgt i32 %38, 1
  br i1 %18, label %19, label %50

19:                                               ; preds = %16
  %20 = zext i32 %17 to i64
  br label %44

21:                                               ; preds = %11, %27
  %22 = phi i64 [ 0, %11 ], [ %29, %27 ]
  %23 = phi i64 [ %15, %11 ], [ %30, %27 ]
  %24 = phi i1 [ false, %11 ], [ true, %27 ]
  %25 = getelementptr inbounds [100 x i8], [100 x i8]* %1, i64 0, i64 %23
  %26 = load i8, i8* %25, align 1, !tbaa !5
  switch i8 %26, label %27 [
    i8 32, label %31
    i8 0, label %31
  ]

27:                                               ; preds = %21
  %28 = getelementptr inbounds [100 x [100 x i8]], [100 x [100 x i8]]* %2, i64 0, i64 %14, i64 %22
  store i8 %26, i8* %28, align 1, !tbaa !5
  %29 = add nuw i64 %22, 1
  %30 = add i64 %23, 1
  br label %21, !llvm.loop !8

31:                                               ; preds = %21, %21
  %32 = trunc i64 %23 to i32
  br i1 %24, label %33, label %37

33:                                               ; preds = %31
  %34 = and i64 %22, 4294967295
  %35 = getelementptr inbounds [100 x [100 x i8]], [100 x [100 x i8]]* %2, i64 0, i64 %14, i64 %34
  store i8 0, i8* %35, align 1, !tbaa !5
  %36 = add nsw i32 %12, 1
  br label %37

37:                                               ; preds = %31, %33
  %38 = phi i32 [ %36, %33 ], [ %12, %31 ]
  %39 = add nsw i32 %32, 1
  %40 = sext i32 %39 to i64
  %41 = getelementptr inbounds [100 x i8], [100 x i8]* %1, i64 0, i64 %40
  %42 = load i8, i8* %41, align 1, !tbaa !5
  %43 = icmp eq i8 %42, 0
  br i1 %43, label %16, label %11, !llvm.loop !10

44:                                               ; preds = %19, %44
  %45 = phi i64 [ 0, %19 ], [ %48, %44 ]
  %46 = getelementptr inbounds [100 x [100 x i8]], [100 x [100 x i8]]* %2, i64 0, i64 %45, i64 0
  %47 = call i32 (i8*, ...) @printf(i8* nonnull dereferenceable(1) getelementptr inbounds ([4 x i8], [4 x i8]* @.str.1, i64 0, i64 0), i8* nonnull %46)
  %48 = add nuw nsw i64 %45, 1
  %49 = icmp eq i64 %48, %20
  br i1 %49, label %50, label %44, !llvm.loop !11

50:                                               ; preds = %44, %0, %16
  %51 = phi i32 [ %17, %16 ], [ -1, %0 ], [ %17, %44 ]
  %52 = sext i32 %51 to i64
  %53 = getelementptr inbounds [100 x [100 x i8]], [100 x [100 x i8]]* %2, i64 0, i64 %52, i64 0
  %54 = call i32 (i8*, ...) @printf(i8* nonnull dereferenceable(1) getelementptr inbounds ([3 x i8], [3 x i8]* @.str.2, i64 0, i64 0), i8* nonnull %53)
  call void @llvm.lifetime.end.p0i8(i64 10000, i8* nonnull %4) #5
  call void @llvm.lifetime.end.p0i8(i64 100, i8* nonnull %3) #5
  ret i32 0
}

; Function Attrs: argmemonly mustprogress nofree nosync nounwind willreturn
declare void @llvm.lifetime.start.p0i8(i64 immarg, i8* nocapture) #1

declare i32 @gets(...) local_unnamed_addr #2

; Function Attrs: nofree nounwind
declare noundef i32 @printf(i8* nocapture noundef readonly, ...) local_unnamed_addr #3

; Function Attrs: argmemonly mustprogress nofree nosync nounwind willreturn
declare void @llvm.lifetime.end.p0i8(i64 immarg, i8* nocapture) #1

; Function Attrs: argmemonly nofree nounwind readonly willreturn
declare i64 @strlen(i8* nocapture) local_unnamed_addr #4


!llvm.module.flags = !{!0, !1, !2, !3}
!llvm.ident = !{!4}

!0 = !{i32 1, !"wchar_size", i32 4}
!1 = !{i32 7, !"PIC Level", i32 2}
!2 = !{i32 7, !"PIE Level", i32 2}
!3 = !{i32 7, !"uwtable", i32 1}
!4 = !{!"clang version 13.0.0"}
!5 = !{!6, !6, i64 0}
!6 = !{!"omnipotent char", !7, i64 0}
!7 = !{!"Simple C/C++ TBAA"}
!8 = distinct !{!8, !9}
!9 = !{!"llvm.loop.mustprogress"}
!10 = distinct !{!10, !9}
!11 = distinct !{!11, !9}
